target datalayout = "e-m:e-p270:32:32-p271:32:32-p272:64:64-i64:64-i128:128-f80:128-n8:16:32:64-S128"
target triple = "x86_64-pc-linux-gnu"

%struct.opj_stream_private = type { ptr, ptr, i64, ptr, ptr, ptr, ptr, ptr, ptr, ptr, ptr, i64, i64, i64, i32 }

@.str.1 = private unnamed_addr constant [26 x i8] c"Error on writing stream!\0A\00", align 1

; Function Attrs: nounwind uwtable
define hidden i32 @opj_stream_flush(ptr noundef %0, ptr noundef %1) #0 {
  %3 = alloca i32, align 4
  %4 = alloca ptr, align 8
  %5 = alloca ptr, align 8
  %6 = alloca i64, align 8
  %7 = alloca i32, align 4
  store ptr %0, ptr %4, align 8, !tbaa !30
  store ptr %1, ptr %5, align 8, !tbaa !43
  call void @llvm.lifetime.start.p0(i64 8, ptr %6) #4
  store i64 0, ptr %6, align 8, !tbaa !28
  %8 = load ptr, ptr %4, align 8, !tbaa !30
  %9 = getelementptr inbounds nuw %struct.opj_stream_private, ptr %8, i32 0, i32 7
  %10 = load ptr, ptr %9, align 8, !tbaa !34
  %11 = load ptr, ptr %4, align 8, !tbaa !30
  %12 = getelementptr inbounds nuw %struct.opj_stream_private, ptr %11, i32 0, i32 8
  store ptr %10, ptr %12, align 8, !tbaa !35
  br label %13

13:                                               ; preds = %41, %2
  %14 = load ptr, ptr %4, align 8, !tbaa !30
  %15 = getelementptr inbounds nuw %struct.opj_stream_private, ptr %14, i32 0, i32 11
  %16 = load i64, ptr %15, align 8, !tbaa !45
  %17 = icmp ne i64 %16, 0
  br i1 %17, label %18, label %52

18:                                               ; preds = %13
  %19 = load ptr, ptr %4, align 8, !tbaa !30
  %20 = getelementptr inbounds nuw %struct.opj_stream_private, ptr %19, i32 0, i32 4
  %21 = load ptr, ptr %20, align 8, !tbaa !40
  %22 = load ptr, ptr %4, align 8, !tbaa !30
  %23 = getelementptr inbounds nuw %struct.opj_stream_private, ptr %22, i32 0, i32 8
  %24 = load ptr, ptr %23, align 8, !tbaa !35
  %25 = load ptr, ptr %4, align 8, !tbaa !30
  %26 = getelementptr inbounds nuw %struct.opj_stream_private, ptr %25, i32 0, i32 11
  %27 = load i64, ptr %26, align 8, !tbaa !45
  %28 = load ptr, ptr %4, align 8, !tbaa !30
  %29 = getelementptr inbounds nuw %struct.opj_stream_private, ptr %28, i32 0, i32 0
  %30 = load ptr, ptr %29, align 8, !tbaa !48
  %31 = call i64 %21(ptr noundef %24, i64 noundef %27, ptr noundef %30)
  store i64 %31, ptr %6, align 8, !tbaa !28
  %32 = load i64, ptr %6, align 8, !tbaa !28
  %33 = icmp eq i64 %32, -1
  br i1 %33, label %34, label %41

34:                                               ; preds = %18
  %35 = load ptr, ptr %4, align 8, !tbaa !30
  %36 = getelementptr inbounds nuw %struct.opj_stream_private, ptr %35, i32 0, i32 14
  %37 = load i32, ptr %36, align 8, !tbaa !36
  %38 = or i32 %37, 8
  store i32 %38, ptr %36, align 8, !tbaa !36
  %39 = load ptr, ptr %5, align 8, !tbaa !43
  %40 = call i32 (ptr, i32, ptr, ...) @opj_event_msg(ptr noundef %39, i32 noundef 4, ptr noundef @.str.1)
  store i32 0, ptr %3, align 4
  store i32 1, ptr %7, align 4
  br label %58

41:                                               ; preds = %18
  %42 = load i64, ptr %6, align 8, !tbaa !28
  %43 = load ptr, ptr %4, align 8, !tbaa !30
  %44 = getelementptr inbounds nuw %struct.opj_stream_private, ptr %43, i32 0, i32 8
  %45 = load ptr, ptr %44, align 8, !tbaa !35
  %46 = getelementptr inbounds nuw i8, ptr %45, i64 %42
  store ptr %46, ptr %44, align 8, !tbaa !35
  %47 = load i64, ptr %6, align 8, !tbaa !28
  %48 = load ptr, ptr %4, align 8, !tbaa !30
  %49 = getelementptr inbounds nuw %struct.opj_stream_private, ptr %48, i32 0, i32 11
  %50 = load i64, ptr %49, align 8, !tbaa !45
  %51 = sub i64 %50, %47
  store i64 %51, ptr %49, align 8, !tbaa !45
  br label %13, !llvm.loop !55

52:                                               ; preds = %13
  %53 = load ptr, ptr %4, align 8, !tbaa !30
  %54 = getelementptr inbounds nuw %struct.opj_stream_private, ptr %53, i32 0, i32 7
  %55 = load ptr, ptr %54, align 8, !tbaa !34
  %56 = load ptr, ptr %4, align 8, !tbaa !30
  %57 = getelementptr inbounds nuw %struct.opj_stream_private, ptr %56, i32 0, i32 8
  store ptr %55, ptr %57, align 8, !tbaa !35
  store i32 1, ptr %3, align 4
  store i32 1, ptr %7, align 4
  br label %58

58:                                               ; preds = %52, %34
  call void @llvm.lifetime.end.p0(i64 8, ptr %6) #4
  %59 = load i32, ptr %3, align 4
  ret i32 %59
}

; Function Attrs: nounwind uwtable
define hidden i32 @opj_stream_write_seek(ptr noundef %0, i64 noundef %1, ptr noundef %2) #0 {
  %4 = alloca i32, align 4
  %5 = alloca ptr, align 8
  %6 = alloca i64, align 8
  %7 = alloca ptr, align 8
  store ptr %0, ptr %5, align 8, !tbaa !30
  store i64 %1, ptr %6, align 8, !tbaa !28
  store ptr %2, ptr %7, align 8, !tbaa !43
  %8 = load ptr, ptr %5, align 8, !tbaa !30
  %9 = load ptr, ptr %7, align 8, !tbaa !43
  %10 = call i32 @opj_stream_flush(ptr noundef %8, ptr noundef %9)
  %11 = icmp ne i32 %10, 0
  br i1 %11, label %17, label %12

12:                                               ; preds = %3
  %13 = load ptr, ptr %5, align 8, !tbaa !30
  %14 = getelementptr inbounds nuw %struct.opj_stream_private, ptr %13, i32 0, i32 14
  %15 = load i32, ptr %14, align 8, !tbaa !36
  %16 = or i32 %15, 8
  store i32 %16, ptr %14, align 8, !tbaa !36
  store i32 0, ptr %4, align 4
  br label %44

17:                                               ; preds = %3
  %18 = load ptr, ptr %5, align 8, !tbaa !30
  %19 = getelementptr inbounds nuw %struct.opj_stream_private, ptr %18, i32 0, i32 7
  %20 = load ptr, ptr %19, align 8, !tbaa !34
  %21 = load ptr, ptr %5, align 8, !tbaa !30
  %22 = getelementptr inbounds nuw %struct.opj_stream_private, ptr %21, i32 0, i32 8
  store ptr %20, ptr %22, align 8, !tbaa !35
  %23 = load ptr, ptr %5, align 8, !tbaa !30
  %24 = getelementptr inbounds nuw %struct.opj_stream_private, ptr %23, i32 0, i32 11
  store i64 0, ptr %24, align 8, !tbaa !45
  %25 = load ptr, ptr %5, align 8, !tbaa !30
  %26 = getelementptr inbounds nuw %struct.opj_stream_private, ptr %25, i32 0, i32 6
  %27 = load ptr, ptr %26, align 8, !tbaa !42
  %28 = load i64, ptr %6, align 8, !tbaa !28
  %29 = load ptr, ptr %5, align 8, !tbaa !30
  %30 = getelementptr inbounds nuw %struct.opj_stream_private, ptr %29, i32 0, i32 0
  %31 = load ptr, ptr %30, align 8, !tbaa !48
  %32 = call i32 %27(i64 noundef %28, ptr noundef %31)
  %33 = icmp ne i32 %32, 0
  br i1 %33, label %39, label %34

34:                                               ; preds = %17
  %35 = load ptr, ptr %5, align 8, !tbaa !30
  %36 = getelementptr inbounds nuw %struct.opj_stream_private, ptr %35, i32 0, i32 14
  %37 = load i32, ptr %36, align 8, !tbaa !36
  %38 = or i32 %37, 8
  store i32 %38, ptr %36, align 8, !tbaa !36
  store i32 0, ptr %4, align 4
  br label %44

39:                                               ; preds = %17
  %40 = load i64, ptr %6, align 8, !tbaa !28
  %41 = load ptr, ptr %5, align 8, !tbaa !30
  %42 = getelementptr inbounds nuw %struct.opj_stream_private, ptr %41, i32 0, i32 12
  store i64 %40, ptr %42, align 8, !tbaa !46
  br label %43

43:                                               ; preds = %39
  store i32 1, ptr %4, align 4
  br label %44

44:                                               ; preds = %43, %34, %12
  %45 = load i32, ptr %4, align 4
  ret i32 %45
}