; Function Attrs: nounwind uwtable
define hidden range(i32 0, 2) i32 @opj_stream_write_seek(ptr noundef captures(none) initializes((64, 72)) %0, i64 noundef %1, ptr noundef %2) #5 {
  %4 = getelementptr inbounds nuw i8, ptr %0, i64 56
  %5 = load ptr, ptr %4, align 8, !tbaa !24
  %6 = getelementptr inbounds nuw i8, ptr %0, i64 64
  store ptr %5, ptr %6, align 8, !tbaa !25
  %7 = getelementptr inbounds nuw i8, ptr %0, i64 88
  %8 = load i64, ptr %7, align 8, !tbaa !33
  %.not18.i = icmp eq i64 %8, 0
  br i1 %.not18.i, label %29, label %.lr.ph.i

.lr.ph.i:                                         ; preds = %3
  %9 = getelementptr inbounds nuw i8, ptr %0, i64 32
  br label %10

10:                                               ; preds = %17, %.lr.ph.i
  %11 = phi ptr [ %5, %.lr.ph.i ], [ %19, %17 ]
  %12 = phi i64 [ %8, %.lr.ph.i ], [ %21, %17 ]
  %13 = load ptr, ptr %9, align 8, !tbaa !30
  %14 = load ptr, ptr %0, align 8, !tbaa !36
  %15 = tail call i64 %13(ptr noundef %11, i64 noundef %12, ptr noundef %14) #9
  %16 = icmp eq i64 %15, -1
  br i1 %16, label %22, label %17

17:                                               ; preds = %10
  %18 = load ptr, ptr %6, align 8, !tbaa !25
  %19 = getelementptr inbounds nuw i8, ptr %18, i64 %15
  store ptr %19, ptr %6, align 8, !tbaa !25
  %20 = load i64, ptr %7, align 8, !tbaa !33
  %21 = sub i64 %20, %15
  store i64 %21, ptr %7, align 8, !tbaa !33
  %.not.i = icmp eq i64 %21, 0
  br i1 %.not.i, label %._crit_edge.loopexit.i, label %10, !llvm.loop !38

._crit_edge.loopexit.i:                           ; preds = %17
  %.pre.i = load ptr, ptr %4, align 8, !tbaa !24
  br label %29

22:                                               ; preds = %10
  %23 = getelementptr inbounds nuw i8, ptr %0, i64 112
  %24 = load i32, ptr %23, align 8, !tbaa !26
  %25 = or i32 %24, 8
  store i32 %25, ptr %23, align 8, !tbaa !26
  %26 = tail call i32 (ptr, i32, ptr, ...) @opj_event_msg(ptr noundef %2, i32 noundef 4, ptr noundef nonnull @.str.1) #9
  %27 = load i32, ptr %23, align 8, !tbaa !26
  %28 = or i32 %27, 8
  store i32 %28, ptr %23, align 8, !tbaa !26
  br label %41

29:                                               ; preds = %._crit_edge.loopexit.i, %3
  %30 = phi ptr [ %.pre.i, %._crit_edge.loopexit.i ], [ %5, %3 ]
  store ptr %30, ptr %6, align 8, !tbaa !25
  store i64 0, ptr %7, align 8, !tbaa !33
  %31 = getelementptr inbounds nuw i8, ptr %0, i64 48
  %32 = load ptr, ptr %31, align 8, !tbaa !32
  %33 = load ptr, ptr %0, align 8, !tbaa !36
  %34 = tail call i32 %32(i64 noundef %1, ptr noundef %33) #9
  %.not12 = icmp eq i32 %34, 0
  br i1 %.not12, label %35, label %39

35:                                               ; preds = %29
  %36 = getelementptr inbounds nuw i8, ptr %0, i64 112
  %37 = load i32, ptr %36, align 8, !tbaa !26
  %38 = or i32 %37, 8
  store i32 %38, ptr %36, align 8, !tbaa !26
  br label %41

39:                                               ; preds = %29
  %40 = getelementptr inbounds nuw i8, ptr %0, i64 96
  store i64 %1, ptr %40, align 8, !tbaa !34
  br label %41

41:                                               ; preds = %39, %35, %22
  %.0 = phi i32 [ 1, %39 ], [ 0, %35 ], [ 0, %22 ]
  ret i32 %.0
}